target datalayout = "e-m:e-p270:32:32-p271:32:32-p272:64:64-i64:64-i128:128-f80:128-n8:16:32:64-S128"
target triple = "x86_64-pc-linux-gnu"

@.str = private unnamed_addr constant [35 x i8] c"../openssl/crypto/evp/asymcipher.c\00", align 1
@__func__.evp_pkey_decrypt_alloc = private unnamed_addr constant [23 x i8] c"evp_pkey_decrypt_alloc\00", align 1

; Function Attrs: nounwind uwtable
define i32 @evp_pkey_decrypt_alloc(ptr noundef %0, ptr noundef %1, ptr noundef %2, i64 noundef %3, ptr noundef %4, i64 noundef %5) #0 {
  %7 = alloca i32, align 4
  %8 = alloca ptr, align 8
  %9 = alloca ptr, align 8
  %10 = alloca ptr, align 8
  %11 = alloca i64, align 8
  %12 = alloca ptr, align 8
  %13 = alloca i64, align 8
  store ptr %0, ptr %8, align 8, !tbaa !3
  store ptr %1, ptr %9, align 8, !tbaa !64
  store ptr %2, ptr %10, align 8, !tbaa !57
  store i64 %3, ptr %11, align 8, !tbaa !59
  store ptr %4, ptr %12, align 8, !tbaa !19
  store i64 %5, ptr %13, align 8, !tbaa !59
  %14 = load ptr, ptr %8, align 8, !tbaa !3
  %15 = load ptr, ptr %10, align 8, !tbaa !57
  %16 = load ptr, ptr %12, align 8, !tbaa !19
  %17 = load i64, ptr %13, align 8, !tbaa !59
  %18 = call i32 @EVP_PKEY_decrypt(ptr noundef %14, ptr noundef null, ptr noundef %15, ptr noundef %16, i64 noundef %17)
  %19 = icmp sle i32 %18, 0
  br i1 %19, label %26, label %20

20:                                               ; preds = %6
  %21 = load ptr, ptr %10, align 8, !tbaa !57
  %22 = load i64, ptr %21, align 8, !tbaa !59
  %23 = call noalias ptr @CRYPTO_malloc(i64 noundef %22, ptr noundef @.str, i32 noundef 317)
  %24 = load ptr, ptr %9, align 8, !tbaa !64
  store ptr %23, ptr %24, align 8, !tbaa !19
  %25 = icmp eq ptr %23, null
  br i1 %25, label %26, label %27

26:                                               ; preds = %20, %6
  store i32 -1, ptr %7, align 4
  br label %55

27:                                               ; preds = %20
  %28 = load ptr, ptr %8, align 8, !tbaa !3
  %29 = load ptr, ptr %9, align 8, !tbaa !64
  %30 = load ptr, ptr %29, align 8, !tbaa !19
  %31 = load ptr, ptr %10, align 8, !tbaa !57
  %32 = load ptr, ptr %12, align 8, !tbaa !19
  %33 = load i64, ptr %13, align 8, !tbaa !59
  %34 = call i32 @EVP_PKEY_decrypt(ptr noundef %28, ptr noundef %30, ptr noundef %31, ptr noundef %32, i64 noundef %33)
  %35 = icmp sle i32 %34, 0
  br i1 %35, label %48, label %36

36:                                               ; preds = %27
  %37 = load ptr, ptr %10, align 8, !tbaa !57
  %38 = load i64, ptr %37, align 8, !tbaa !59
  %39 = icmp eq i64 %38, 0
  br i1 %39, label %48, label %40

40:                                               ; preds = %36
  %41 = load i64, ptr %11, align 8, !tbaa !59
  %42 = icmp ne i64 %41, 0
  br i1 %42, label %43, label %54

43:                                               ; preds = %40
  %44 = load ptr, ptr %10, align 8, !tbaa !57
  %45 = load i64, ptr %44, align 8, !tbaa !59
  %46 = load i64, ptr %11, align 8, !tbaa !59
  %47 = icmp ne i64 %45, %46
  br i1 %47, label %48, label %54

48:                                               ; preds = %43, %36, %27
  call void @ERR_new()
  call void @ERR_set_debug(ptr noundef @.str, i32 noundef 322, ptr noundef @__func__.evp_pkey_decrypt_alloc)
  call void (i32, i32, ptr, ...) @ERR_set_error(i32 noundef 6, i32 noundef 524294, ptr noundef null)
  %49 = load ptr, ptr %9, align 8, !tbaa !64
  %50 = load ptr, ptr %49, align 8, !tbaa !19
  %51 = load ptr, ptr %10, align 8, !tbaa !57
  %52 = load i64, ptr %51, align 8, !tbaa !59
  call void @CRYPTO_clear_free(ptr noundef %50, i64 noundef %52, ptr noundef @.str, i32 noundef 323)
  %53 = load ptr, ptr %9, align 8, !tbaa !64
  store ptr null, ptr %53, align 8, !tbaa !19
  store i32 0, ptr %7, align 4
  br label %55

54:                                               ; preds = %43, %40
  store i32 1, ptr %7, align 4
  br label %55

55:                                               ; preds = %54, %48, %26
  %56 = load i32, ptr %7, align 4
  ret i32 %56
}