; Function Attrs: nounwind uwtable
define range(i32 -1, 2) i32 @evp_pkey_decrypt_alloc(ptr noundef %0, ptr noundef captures(none) %1, ptr noundef %2, i64 noundef %3, ptr noundef %4, i64 noundef %5) local_unnamed_addr #0 {
  %7 = tail call i32 @EVP_PKEY_decrypt(ptr noundef %0, ptr noundef null, ptr noundef %2, ptr noundef %4, i64 noundef %5)
  %8 = icmp slt i32 %7, 1
  br i1 %8, label %23, label %9

9:                                                ; preds = %6
  %10 = load i64, ptr %2, align 8, !tbaa !50
  %11 = tail call noalias ptr @CRYPTO_malloc(i64 noundef %10, ptr noundef nonnull @.str, i32 noundef 317) #5
  store ptr %11, ptr %1, align 8, !tbaa !54
  %12 = icmp eq ptr %11, null
  br i1 %12, label %23, label %13

13:                                               ; preds = %9
  %14 = tail call i32 @EVP_PKEY_decrypt(ptr noundef %0, ptr noundef nonnull %11, ptr noundef nonnull %2, ptr noundef %4, i64 noundef %5)
  %15 = icmp slt i32 %14, 1
  br i1 %15, label %20, label %16

16:                                               ; preds = %13
  %17 = load i64, ptr %2, align 8, !tbaa !50
  %18 = icmp eq i64 %17, 0
  br i1 %18, label %20, label %19

19:                                               ; preds = %16
  %.not = icmp eq i64 %3, 0
  %.not21 = icmp eq i64 %17, %3
  %or.cond = or i1 %.not, %.not21
  br i1 %or.cond, label %23, label %20

20:                                               ; preds = %19, %16, %13
  tail call void @ERR_new() #5
  tail call void @ERR_set_debug(ptr noundef nonnull @.str, i32 noundef 322, ptr noundef nonnull @__func__.evp_pkey_decrypt_alloc) #5
  tail call void (i32, i32, ptr, ...) @ERR_set_error(i32 noundef 6, i32 noundef 524294, ptr noundef null) #5
  %21 = load ptr, ptr %1, align 8, !tbaa !54
  %22 = load i64, ptr %2, align 8, !tbaa !50
  tail call void @CRYPTO_clear_free(ptr noundef %21, i64 noundef %22, ptr noundef nonnull @.str, i32 noundef 323) #5
  store ptr null, ptr %1, align 8, !tbaa !54
  br label %23

23:                                               ; preds = %19, %6, %9, %20
  %.0 = phi i32 [ 0, %20 ], [ -1, %9 ], [ -1, %6 ], [ 1, %19 ]
  ret i32 %.0
}